; Function Attrs: mustprogress nounwind uwtable
define hidden void @_ZN19OpenColorIO_v2_5dev28ColorSpaceMenuParametersImpl7DeleterEPNS_24ColorSpaceMenuParametersE(ptr noundef %0) #4 align 2 {
  %2 = icmp eq ptr %0, null
  br i1 %2, label %7, label %3

3:                                                ; preds = %1
  %4 = load ptr, ptr %0, align 8, !tbaa !12
  %5 = getelementptr inbounds nuw i8, ptr %4, i64 184
  %6 = load ptr, ptr %5, align 8
  tail call void %6(ptr noundef nonnull align 8 dereferenceable(184) %0) #29
  br label %7

7:                                                ; preds = %3, %1
  ret void
}